; Function Attrs: mustprogress nounwind uwtable
define void @_ZN19OpenColorIO_v2_5dev6Config15loadEnvironmentEv(ptr noundef nonnull readonly align 8 captures(none) dereferenceable(8) %0) local_unnamed_addr #6 align 2 personality ptr @__gxx_personality_v0 {
  %2 = load ptr, ptr %0, align 8, !tbaa !34
  %3 = getelementptr inbounds nuw i8, ptr %2, i64 56
  %4 = load ptr, ptr %3, align 8, !tbaa !235
  tail call void @_ZN19OpenColorIO_v2_5dev7Context15loadEnvironmentEv(ptr noundef nonnull align 8 dereferenceable(8) %4) #34
  %5 = load ptr, ptr %0, align 8, !tbaa !34
  %6 = getelementptr inbounds nuw i8, ptr %5, i64 872
  %7 = tail call noundef i32 @pthread_mutex_lock(ptr noundef nonnull align 8 dereferenceable(40) %6) #34
  %.not.i.i = icmp eq i32 %7, 0
  br i1 %.not.i.i, label %_ZNSt10lock_guardISt5mutexEC2ERS0_.exit, label %8

8:                                                ; preds = %1
  invoke void @_ZSt20__throw_system_errori(i32 noundef %7) #35
          to label %.noexc unwind label %12

.noexc:                                           ; preds = %8
  unreachable

_ZNSt10lock_guardISt5mutexEC2ERS0_.exit:          ; preds = %1
  %9 = load ptr, ptr %0, align 8, !tbaa !34
  invoke void @_ZN19OpenColorIO_v2_5dev6Config4Impl13resetCacheIDsEv(ptr noundef nonnull align 8 dereferenceable(1120) %9)
          to label %10 unwind label %12

10:                                               ; preds = %_ZNSt10lock_guardISt5mutexEC2ERS0_.exit
  %11 = tail call noundef i32 @pthread_mutex_unlock(ptr noundef nonnull align 8 dereferenceable(40) %6) #34
  ret void

12:                                               ; preds = %8, %_ZNSt10lock_guardISt5mutexEC2ERS0_.exit
  %13 = landingpad { ptr, i32 }
          catch ptr null
  %14 = extractvalue { ptr, i32 } %13, 0
  tail call void @__clang_call_terminate(ptr %14) #38
  unreachable
}